; Function Attrs: mustprogress uwtable
define internal fastcc void @_ZNSt16allocator_traitsISaIN12_GLOBAL__N_115cmQtAutoMocUicT7KeyExpTEEE9constructIS2_JRKNSt7__cxx1112basic_stringIcSt11char_traitsIcESaIcEEERSB_EEEvRS3_PT_DpOT0_(ptr noundef %0, ptr noundef nonnull align 8 dereferenceable(32) %1, ptr noundef nonnull align 8 dereferenceable(32) %2) unnamed_addr #3 align 2 personality ptr @__gxx_personality_v0 {
  %4 = alloca %"class.std::__cxx11::basic_string", align 8
  call void @llvm.lifetime.start.p0(i64 32, ptr nonnull %4)
  call void @_ZNSt7__cxx1112basic_stringIcSt11char_traitsIcESaIcEEC1ERKS4_(ptr noundef nonnull align 8 dereferenceable(32) %4, ptr noundef nonnull align 8 dereferenceable(32) %1)
  call void @_ZNSt7__cxx1112basic_stringIcSt11char_traitsIcESaIcEEC1EOS4_(ptr noundef nonnull align 8 dereferenceable(32) %0, ptr noundef nonnull align 8 dereferenceable(32) %4) #23
  %5 = getelementptr inbounds i8, ptr %0, i64 32
  %6 = getelementptr inbounds i8, ptr %0, i64 560
  store ptr null, ptr %6, align 8
  %7 = getelementptr inbounds i8, ptr %0, i64 576
  store ptr null, ptr %7, align 8
  %8 = getelementptr inbounds i8, ptr %0, i64 584
  store i32 0, ptr %8, align 8
  call void @llvm.memset.p0.i64(ptr noundef nonnull align 8 dereferenceable(522) %5, i8 0, i64 522, i1 false)
  %9 = call noundef ptr @_ZNKSt7__cxx1112basic_stringIcSt11char_traitsIcESaIcEE5c_strEv(ptr noundef nonnull align 8 dereferenceable(32) %2) #23
  %10 = invoke noundef zeroext i1 @_ZN5cmsys17RegularExpression7compileEPKc(ptr noundef nonnull align 8 dereferenceable(556) %5, ptr noundef %9)
          to label %_ZNSt15__new_allocatorIN12_GLOBAL__N_115cmQtAutoMocUicT7KeyExpTEE9constructIS2_JRKNSt7__cxx1112basic_stringIcSt11char_traitsIcESaIcEEERSA_EEEvPT_DpOT0_.exit unwind label %.body.i

.body.i:                                          ; preds = %3
  %11 = landingpad { ptr, i32 }
          cleanup
  call void @_ZNSt7__cxx1112basic_stringIcSt11char_traitsIcESaIcEED1Ev(ptr noundef nonnull align 8 dereferenceable(32) %0) #23
  call void @_ZNSt7__cxx1112basic_stringIcSt11char_traitsIcESaIcEED1Ev(ptr noundef nonnull align 8 dereferenceable(32) %4) #23
  resume { ptr, i32 } %11

_ZNSt15__new_allocatorIN12_GLOBAL__N_115cmQtAutoMocUicT7KeyExpTEE9constructIS2_JRKNSt7__cxx1112basic_stringIcSt11char_traitsIcESaIcEEERSA_EEEvPT_DpOT0_.exit: ; preds = %3
  call void @_ZNSt7__cxx1112basic_stringIcSt11char_traitsIcESaIcEED1Ev(ptr noundef nonnull align 8 dereferenceable(32) %4) #23
  call void @llvm.lifetime.end.p0(i64 32, ptr nonnull %4)
  ret void
}